target datalayout = "e-m:e-p270:32:32-p271:32:32-p272:64:64-i64:64-i128:128-f80:128-n8:16:32:64-S128"
target triple = "x86_64-pc-linux-gnu"

%"class.OopStorage::AllocationListEntry" = type { ptr, ptr }
%"class.OopStorage::AllocationList" = type { ptr, ptr }
%"class.OopStorage::Block" = type { [64 x ptr], i64, i64, ptr, i64, %"class.OopStorage::AllocationListEntry", ptr, i64 }

; Function Attrs: mustprogress nounwind uwtable
define linkonce_odr hidden noundef nonnull align 8 dereferenceable(16) ptr @_ZNK10OopStorage5Block21allocation_list_entryEv(ptr noundef nonnull align 8 dereferenceable(576) %0) #1 comdat align 2 {
  %2 = alloca ptr, align 8
  store ptr %0, ptr %2, align 8
  %3 = load ptr, ptr %2, align 8
  %4 = getelementptr inbounds %"class.OopStorage::Block", ptr %3, i32 0, i32 5
  ret ptr %4
}

; Function Attrs: mustprogress nounwind uwtable
define hidden void @_ZN10OopStorage14AllocationList10push_frontERKNS_5BlockE(ptr noundef nonnull align 8 dereferenceable(16) %0, ptr noundef nonnull align 8 dereferenceable(576) %1) #1 align 2 {
  %3 = alloca ptr, align 8
  %4 = alloca ptr, align 8
  %5 = alloca ptr, align 8
  store ptr %0, ptr %3, align 8
  store ptr %1, ptr %4, align 8
  %6 = load ptr, ptr %3, align 8
  %7 = getelementptr inbounds %"class.OopStorage::AllocationList", ptr %6, i32 0, i32 0
  %8 = load ptr, ptr %7, align 8
  store ptr %8, ptr %5, align 8
  %9 = load ptr, ptr %5, align 8
  %10 = icmp eq ptr %9, null
  br i1 %10, label %11, label %15

11:                                               ; preds = %2
  %12 = load ptr, ptr %4, align 8
  %13 = getelementptr inbounds %"class.OopStorage::AllocationList", ptr %6, i32 0, i32 1
  store ptr %12, ptr %13, align 8
  %14 = getelementptr inbounds %"class.OopStorage::AllocationList", ptr %6, i32 0, i32 0
  store ptr %12, ptr %14, align 8
  br label %26

15:                                               ; preds = %2
  %16 = load ptr, ptr %5, align 8
  %17 = load ptr, ptr %4, align 8
  %18 = call noundef nonnull align 8 dereferenceable(16) ptr @_ZNK10OopStorage5Block21allocation_list_entryEv(ptr noundef nonnull align 8 dereferenceable(576) %17)
  %19 = getelementptr inbounds %"class.OopStorage::AllocationListEntry", ptr %18, i32 0, i32 1
  store ptr %16, ptr %19, align 8
  %20 = load ptr, ptr %4, align 8
  %21 = load ptr, ptr %5, align 8
  %22 = call noundef nonnull align 8 dereferenceable(16) ptr @_ZNK10OopStorage5Block21allocation_list_entryEv(ptr noundef nonnull align 8 dereferenceable(576) %21)
  %23 = getelementptr inbounds %"class.OopStorage::AllocationListEntry", ptr %22, i32 0, i32 0
  store ptr %20, ptr %23, align 8
  %24 = load ptr, ptr %4, align 8
  %25 = getelementptr inbounds %"class.OopStorage::AllocationList", ptr %6, i32 0, i32 0
  store ptr %24, ptr %25, align 8
  br label %26

26:                                               ; preds = %15, %11
  ret void
}