; Function Attrs: mustprogress nofree norecurse nosync nounwind willreturn memory(write, argmem: readwrite, inaccessiblemem: none) uwtable
define hidden void @_ZN10OopStorage14AllocationList10push_frontERKNS_5BlockE(ptr nocapture noundef nonnull align 8 dereferenceable(16) %0, ptr noundef nonnull align 8 dereferenceable(576) %1) local_unnamed_addr #2 align 2 {
  %3 = load ptr, ptr %0, align 8
  %4 = icmp eq ptr %3, null
  br i1 %4, label %5, label %7

5:                                                ; preds = %2
  %6 = getelementptr inbounds i8, ptr %0, i64 8
  br label %10

7:                                                ; preds = %2
  %8 = getelementptr inbounds i8, ptr %1, i64 552
  store ptr %3, ptr %8, align 8
  %9 = getelementptr inbounds i8, ptr %3, i64 544
  br label %10

10:                                               ; preds = %7, %5
  %.sink = phi ptr [ %9, %7 ], [ %6, %5 ]
  store ptr %1, ptr %.sink, align 8
  store ptr %1, ptr %0, align 8
  ret void
}